target datalayout = "e-m:e-p270:32:32-p271:32:32-p272:64:64-i64:64-i128:128-f80:128-n8:16:32:64-S128"
target triple = "x86_64-pc-linux-gnu"

; Function Attrs: mustprogress nounwind uwtable
define linkonce_odr noundef i32 @_ZNSt14numeric_limitsIjE3maxEv() #0 comdat align 2 {
  ret i32 -1
}

; Function Attrs: mustprogress nounwind uwtable
define internal noundef zeroext i1 @_ZN3net12_GLOBAL__N_124ParsePositiveIntegerImplIjEEbPKcS3_PT_(ptr noundef %0, ptr noundef %1, ptr noundef %2) #0 {
  %4 = alloca i1, align 1
  %5 = alloca ptr, align 8
  %6 = alloca ptr, align 8
  %7 = alloca ptr, align 8
  store ptr %0, ptr %5, align 8, !tbaa !32
  store ptr %1, ptr %6, align 8, !tbaa !32
  store ptr %2, ptr %7, align 8, !tbaa !63
  %8 = load ptr, ptr %7, align 8, !tbaa !63
  store i32 0, ptr %8, align 4, !tbaa !27
  br label %9

9:                                                ; preds = %50, %3
  %10 = load ptr, ptr %5, align 8, !tbaa !32
  %11 = load ptr, ptr %6, align 8, !tbaa !32
  %12 = icmp ne ptr %10, %11
  br i1 %12, label %13, label %19

13:                                               ; preds = %9
  %14 = load ptr, ptr %5, align 8, !tbaa !32
  %15 = load i8, ptr %14, align 1, !tbaa !33
  %16 = sext i8 %15 to i32
  %17 = call i32 @isdigit(i32 noundef %16) #17
  %18 = icmp ne i32 %17, 0
  br label %19

19:                                               ; preds = %13, %9
  %20 = phi i1 [ false, %9 ], [ %18, %13 ]
  br i1 %20, label %21, label %53

21:                                               ; preds = %19
  %22 = load ptr, ptr %7, align 8, !tbaa !63
  %23 = load i32, ptr %22, align 4, !tbaa !27
  %24 = call noundef i32 @_ZNSt14numeric_limitsIjE3maxEv() #15
  %25 = udiv i32 %24, 10
  %26 = icmp ugt i32 %23, %25
  br i1 %26, label %27, label %28

27:                                               ; preds = %21
  store i1 false, ptr %4, align 1
  br label %63

28:                                               ; preds = %21
  %29 = load ptr, ptr %7, align 8, !tbaa !63
  %30 = load i32, ptr %29, align 4, !tbaa !27
  %31 = mul i32 %30, 10
  store i32 %31, ptr %29, align 4, !tbaa !27
  %32 = load ptr, ptr %7, align 8, !tbaa !63
  %33 = load i32, ptr %32, align 4, !tbaa !27
  %34 = call noundef i32 @_ZNSt14numeric_limitsIjE3maxEv() #15
  %35 = load ptr, ptr %5, align 8, !tbaa !32
  %36 = load i8, ptr %35, align 1, !tbaa !33
  %37 = sext i8 %36 to i32
  %38 = sub nsw i32 %37, 48
  %39 = sub i32 %34, %38
  %40 = icmp ugt i32 %33, %39
  br i1 %40, label %41, label %42

41:                                               ; preds = %28
  store i1 false, ptr %4, align 1
  br label %63

42:                                               ; preds = %28
  %43 = load ptr, ptr %5, align 8, !tbaa !32
  %44 = load i8, ptr %43, align 1, !tbaa !33
  %45 = sext i8 %44 to i32
  %46 = sub nsw i32 %45, 48
  %47 = load ptr, ptr %7, align 8, !tbaa !63
  %48 = load i32, ptr %47, align 4, !tbaa !27
  %49 = add i32 %48, %46
  store i32 %49, ptr %47, align 4, !tbaa !27
  br label %50

50:                                               ; preds = %42
  %51 = load ptr, ptr %5, align 8, !tbaa !32
  %52 = getelementptr inbounds nuw i8, ptr %51, i32 1
  store ptr %52, ptr %5, align 8, !tbaa !32
  br label %9, !llvm.loop !84

53:                                               ; preds = %19
  %54 = load ptr, ptr %5, align 8, !tbaa !32
  %55 = load ptr, ptr %6, align 8, !tbaa !32
  %56 = icmp eq ptr %54, %55
  br i1 %56, label %57, label %61

57:                                               ; preds = %53
  %58 = load ptr, ptr %7, align 8, !tbaa !63
  %59 = load i32, ptr %58, align 4, !tbaa !27
  %60 = icmp ugt i32 %59, 0
  br label %61

61:                                               ; preds = %57, %53
  %62 = phi i1 [ false, %53 ], [ %60, %57 ]
  store i1 %62, ptr %4, align 1
  br label %63

63:                                               ; preds = %61, %41, %27
  %64 = load i1, ptr %4, align 1
  ret i1 %64
}

; Function Attrs: mustprogress uwtable
define noundef zeroext i1 @_ZN3net20SpdyAltSvcWireFormat22ParsePositiveInteger32EPKcS2_Pj(ptr noundef %0, ptr noundef %1, ptr noundef %2) #1 align 2 {
  %4 = alloca ptr, align 8
  %5 = alloca ptr, align 8
  %6 = alloca ptr, align 8
  store ptr %0, ptr %4, align 8, !tbaa !32
  store ptr %1, ptr %5, align 8, !tbaa !32
  store ptr %2, ptr %6, align 8, !tbaa !63
  %7 = load ptr, ptr %4, align 8, !tbaa !32
  %8 = load ptr, ptr %5, align 8, !tbaa !32
  %9 = load ptr, ptr %6, align 8, !tbaa !63
  %10 = call noundef zeroext i1 @_ZN3net12_GLOBAL__N_124ParsePositiveIntegerImplIjEEbPKcS3_PT_(ptr noundef %7, ptr noundef %8, ptr noundef %9)
  ret i1 %10
}