; Function Attrs: mustprogress nofree norecurse nosync nounwind memory(argmem: readwrite) uwtable
define noundef zeroext i1 @_ZN3net20SpdyAltSvcWireFormat22ParsePositiveInteger32EPKcS2_Pj(ptr noundef readonly captures(address) %0, ptr noundef readnone captures(address) %1, ptr noundef writeonly captures(none) initializes((0, 4)) %2) local_unnamed_addr #10 align 2 {
  store i32 0, ptr %2, align 4, !tbaa !41
  %.not16.i = icmp eq ptr %0, %1
  br i1 %.not16.i, label %_ZN3net12_GLOBAL__N_124ParsePositiveIntegerImplIjEEbPKcS3_PT_.exit, label %.lr.ph.i

.lr.ph.i:                                         ; preds = %3, %15
  %4 = phi i32 [ %17, %15 ], [ 0, %3 ]
  %.01517.i = phi ptr [ %18, %15 ], [ %0, %3 ]
  %5 = load i8, ptr %.01517.i, align 1, !tbaa !12
  %6 = sext i8 %5 to i32
  %7 = add nsw i32 %6, -58
  %isdigit.i = icmp ult i32 %7, -10
  %8 = icmp ugt i32 %4, 429496729
  %or.cond.i = or i1 %8, %isdigit.i
  br i1 %or.cond.i, label %_ZN3net12_GLOBAL__N_124ParsePositiveIntegerImplIjEEbPKcS3_PT_.exit, label %9

9:                                                ; preds = %.lr.ph.i
  %10 = mul nuw i32 %4, 10
  store i32 %10, ptr %2, align 4, !tbaa !41
  %11 = load i8, ptr %.01517.i, align 1, !tbaa !12
  %12 = sext i8 %11 to i32
  %13 = sub nsw i32 47, %12
  %14 = icmp ugt i32 %10, %13
  br i1 %14, label %_ZN3net12_GLOBAL__N_124ParsePositiveIntegerImplIjEEbPKcS3_PT_.exit, label %15

15:                                               ; preds = %9
  %16 = add i32 %10, -48
  %17 = add i32 %16, %12
  store i32 %17, ptr %2, align 4, !tbaa !41
  %18 = getelementptr inbounds nuw i8, ptr %.01517.i, i64 1
  %.not.i = icmp eq ptr %18, %1
  br i1 %.not.i, label %._crit_edge.loopexit.i, label %.lr.ph.i, !llvm.loop !45

._crit_edge.loopexit.i:                           ; preds = %15
  %19 = icmp ne i32 %17, 0
  br label %_ZN3net12_GLOBAL__N_124ParsePositiveIntegerImplIjEEbPKcS3_PT_.exit

_ZN3net12_GLOBAL__N_124ParsePositiveIntegerImplIjEEbPKcS3_PT_.exit: ; preds = %.lr.ph.i, %9, %3, %._crit_edge.loopexit.i
  %.0.i = phi i1 [ %19, %._crit_edge.loopexit.i ], [ false, %3 ], [ false, %9 ], [ false, %.lr.ph.i ]
  ret i1 %.0.i
}